; Function Attrs: nounwind sspstrong uwtable
define internal void @compare_get_timeout(ptr noundef %obj, ptr noundef %v, ptr noundef %name, ptr readnone captures(none) %opaque, ptr noundef %errp) #0 {
entry:
  %value = alloca i64, align 8
  %call.i = tail call ptr @object_dynamic_cast_assert(ptr noundef %obj, ptr noundef nonnull @.str.1, ptr noundef nonnull @.str, i32 noundef 40, ptr noundef nonnull @__func__.COLO_COMPARE) #16
  %compare_timeout = getelementptr inbounds nuw i8, ptr %call.i, i64 209408
  %0 = load i64, ptr %compare_timeout, align 8
  store i64 %0, ptr %value, align 8
  %call1 = call zeroext i1 @visit_type_uint64(ptr noundef %v, ptr noundef %name, ptr noundef nonnull %value, ptr noundef %errp) #16
  ret void
}